; Function Attrs: mustprogress uwtable
define noundef ptr @_ZNK6icu_7511UXMLElement12getAttributeEiRNS_13UnicodeStringES2_(ptr noundef nonnull align 8 dereferenceable(216) %this, i32 noundef %i, ptr noundef nonnull align 8 dereferenceable(64) %name, ptr noundef nonnull align 8 dereferenceable(64) %value) local_unnamed_addr #1 align 2 {
entry:
  %cmp = icmp sgt i32 %i, -1
  %count.i = getelementptr inbounds i8, ptr %this, i64 96
  %0 = load i32, ptr %count.i, align 8
  %cmp2 = icmp sgt i32 %0, %i
  %or.cond = select i1 %cmp, i1 %cmp2, i1 false
  br i1 %or.cond, label %if.then, label %return

if.then:                                          ; preds = %entry
  %fAttNames = getelementptr inbounds i8, ptr %this, i64 88
  %call4 = tail call noundef ptr @_ZNK6icu_757UVector9elementAtEi(ptr noundef nonnull align 8 dereferenceable(40) %fAttNames, i32 noundef %i)
  %call.i = tail call noundef nonnull align 8 dereferenceable(64) ptr @_ZN6icu_7513UnicodeString8copyFromERKS0_a(ptr noundef nonnull align 8 dereferenceable(64) %name, ptr noundef nonnull align 8 dereferenceable(64) %call4, i8 noundef signext 0)
  %fAttValues = getelementptr inbounds i8, ptr %this, i64 128
  %call6 = tail call noundef ptr @_ZNK6icu_757UVector9elementAtEi(ptr noundef nonnull align 8 dereferenceable(40) %fAttValues, i32 noundef %i)
  %call.i5 = tail call noundef nonnull align 8 dereferenceable(64) ptr @_ZN6icu_7513UnicodeString8copyFromERKS0_a(ptr noundef nonnull align 8 dereferenceable(64) %value, ptr noundef nonnull align 8 dereferenceable(64) %call6, i8 noundef signext 0)
  br label %return

return:                                           ; preds = %entry, %if.then
  %retval.0 = phi ptr [ %value, %if.then ], [ null, %entry ]
  ret ptr %retval.0
}